; Function Attrs: nounwind uwtable
define internal i32 @RSA_verify_loop(ptr noundef readonly captures(none) %0) #0 {
  %2 = load ptr, ptr %0, align 8, !tbaa !189
  %3 = getelementptr inbounds nuw i8, ptr %2, i64 16
  %4 = load ptr, ptr %3, align 8, !tbaa !53
  %5 = getelementptr inbounds nuw i8, ptr %2, i64 24
  %6 = load ptr, ptr %5, align 8, !tbaa !54
  %7 = getelementptr inbounds nuw i8, ptr %2, i64 80
  %8 = load i64, ptr %7, align 8, !tbaa !56
  %9 = getelementptr inbounds nuw i8, ptr %2, i64 152
  %10 = load volatile i32, ptr @run, align 4, !tbaa !13
  %.not13 = icmp eq i32 %10, 0
  br i1 %.not13, label %.critedge, label %.lr.ph

.lr.ph:                                           ; preds = %1, %24
  %.014 = phi i32 [ %25, %24 ], [ 0, %1 ]
  %.b = load i1, ptr @testmode, align 4
  %11 = select i1 %.b, i32 1, i32 2147483647
  %12 = icmp samesign ult i32 %.014, %11
  br i1 %12, label %13, label %.critedge

13:                                               ; preds = %.lr.ph
  %14 = load i32, ptr @testnum, align 4, !tbaa !13
  %15 = zext i32 %14 to i64
  %16 = getelementptr inbounds nuw ptr, ptr %9, i64 %15
  %17 = load ptr, ptr %16, align 8, !tbaa !15
  %18 = tail call i32 @EVP_PKEY_verify(ptr noundef %17, ptr noundef %6, i64 noundef %8, ptr noundef %4, i64 noundef 36) #14
  %19 = icmp slt i32 %18, 1
  br i1 %19, label %20, label %24

20:                                               ; preds = %13
  %21 = load ptr, ptr @bio_err, align 8, !tbaa !19
  %22 = tail call i32 (ptr, ptr, ...) @BIO_printf(ptr noundef %21, ptr noundef nonnull @.str.448) #14
  %23 = load ptr, ptr @bio_err, align 8, !tbaa !19
  tail call void @ERR_print_errors(ptr noundef %23) #14
  store i1 true, ptr @testmoderesult, align 4
  br label %.critedge

24:                                               ; preds = %13
  %25 = add nuw nsw i32 %.014, 1
  %26 = load volatile i32, ptr @run, align 4, !tbaa !13
  %.not = icmp eq i32 %26, 0
  br i1 %.not, label %.critedge, label %.lr.ph, !llvm.loop !218

.critedge:                                        ; preds = %.lr.ph, %24, %1, %20
  %.1 = phi i32 [ -1, %20 ], [ 0, %1 ], [ %.014, %.lr.ph ], [ %25, %24 ]
  ret i32 %.1
}